target datalayout = "e-m:e-p270:32:32-p271:32:32-p272:64:64-i64:64-i128:128-f80:128-n8:16:32:64-S128"
target triple = "x86_64-pc-linux-gnu"

%"class.Gluco::vec.0" = type { ptr, i32, i32 }
%"class.Gluco::Solver" = type { ptr, i32, ptr, ptr, i32, i8, ptr, i64, %"class.Gluco::vec", %"class.Gluco::vec.0", i32, %"class.Gluco::vec.1", %"class.Gluco::vec.0", i32, i32, i32, double, double, double, double, i32, i32, i32, i32, i32, i32, double, double, double, double, i32, i32, i8, i8, double, ptr, i8, i64, i64, i64, i64, i64, i64, i64, i64, i64, i64, i64, i64, i64, i64, i64, i64, i64, i64, i64, i64, i64, i64, i32, i8, double, %"class.Gluco::vec.2", double, %"class.Gluco::OccLists", %"class.Gluco::OccLists", %"class.Gluco::vec.5", %"class.Gluco::vec.5", %"class.Gluco::vec.1", %"class.Gluco::vec.4", %"class.Gluco::vec.4", %"class.Gluco::vec.0", %"class.Gluco::vec", %"class.Gluco::vec", %"class.Gluco::vec.6", i32, i32, i64, %"class.Gluco::vec.0", %"class.Gluco::Heap", double, i8, %"class.Gluco::vec.5", %"class.Gluco::vec.0", %"class.Gluco::ClauseAllocator", i32, %"class.Gluco::bqueue", %"class.Gluco::bqueue", float, i32, %"class.Gluco::vec.4", %"class.Gluco::vec.0", %"class.Gluco::vec.0", %"class.Gluco::vec.0", i32, double, double, i32, i64, i64, i8, i32, i32, double, double, i32, i32, %"class.Gluco::vec", %"class.Gluco::vec" }
%"class.Gluco::vec.2" = type { ptr, i32, i32 }
%"class.Gluco::OccLists" = type { %"class.Gluco::vec.3", %"class.Gluco::vec.4", %"class.Gluco::vec.0", %"struct.Gluco::Solver::WatcherDeleted" }
%"class.Gluco::vec.3" = type { ptr, i32, i32 }
%"struct.Gluco::Solver::WatcherDeleted" = type { ptr }
%"class.Gluco::vec.1" = type { ptr, i32, i32 }
%"class.Gluco::vec.6" = type { ptr, i32, i32 }
%"class.Gluco::Heap" = type { %"struct.Gluco::Solver::VarOrderLt", %"class.Gluco::vec", %"class.Gluco::vec" }
%"struct.Gluco::Solver::VarOrderLt" = type { ptr }
%"class.Gluco::ClauseAllocator" = type { %"class.Gluco::RegionAllocator.base", i8, [3 x i8] }
%"class.Gluco::RegionAllocator.base" = type <{ ptr, i32, i32, i32 }>
%"class.Gluco::bqueue" = type { %"class.Gluco::vec.5", i32, i32, i64, i32, i32, i8, double, double }
%"class.Gluco::vec.5" = type { ptr, i32, i32 }
%"class.Gluco::vec" = type { ptr, i32, i32 }
%"class.Gluco::vec.4" = type { ptr, i32, i32 }
%"class.Gluco::RegionAllocator" = type <{ ptr, i32, i32, i32, [4 x i8] }>

@.str.28 = private unnamed_addr constant [65 x i8] c"|  Garbage collection:   %12d bytes => %12d bytes             |\0A\00", align 1

; Function Attrs: mustprogress nounwind uwtable
define linkonce_odr void @_ZN5Gluco15RegionAllocatorIjE6moveToERS1_(ptr noundef nonnull align 8 dereferenceable(20) %0, ptr noundef nonnull align 8 dereferenceable(20) %1) #2 comdat align 2 {
  %3 = alloca ptr, align 8
  %4 = alloca ptr, align 8
  store ptr %0, ptr %3, align 8
  store ptr %1, ptr %4, align 8
  %5 = load ptr, ptr %3, align 8
  %6 = load ptr, ptr %4, align 8
  %7 = getelementptr inbounds %"class.Gluco::RegionAllocator", ptr %6, i32 0, i32 0
  %8 = load ptr, ptr %7, align 8
  %9 = icmp ne ptr %8, null
  br i1 %9, label %10, label %14

10:                                               ; preds = %2
  %11 = load ptr, ptr %4, align 8
  %12 = getelementptr inbounds %"class.Gluco::RegionAllocator", ptr %11, i32 0, i32 0
  %13 = load ptr, ptr %12, align 8
  call void @free(ptr noundef %13) #3
  br label %14

14:                                               ; preds = %10, %2
  %15 = getelementptr inbounds %"class.Gluco::RegionAllocator", ptr %5, i32 0, i32 0
  %16 = load ptr, ptr %15, align 8
  %17 = load ptr, ptr %4, align 8
  %18 = getelementptr inbounds %"class.Gluco::RegionAllocator", ptr %17, i32 0, i32 0
  store ptr %16, ptr %18, align 8
  %19 = getelementptr inbounds %"class.Gluco::RegionAllocator", ptr %5, i32 0, i32 1
  %20 = load i32, ptr %19, align 8
  %21 = load ptr, ptr %4, align 8
  %22 = getelementptr inbounds %"class.Gluco::RegionAllocator", ptr %21, i32 0, i32 1
  store i32 %20, ptr %22, align 8
  %23 = getelementptr inbounds %"class.Gluco::RegionAllocator", ptr %5, i32 0, i32 2
  %24 = load i32, ptr %23, align 4
  %25 = load ptr, ptr %4, align 8
  %26 = getelementptr inbounds %"class.Gluco::RegionAllocator", ptr %25, i32 0, i32 2
  store i32 %24, ptr %26, align 4
  %27 = getelementptr inbounds %"class.Gluco::RegionAllocator", ptr %5, i32 0, i32 3
  %28 = load i32, ptr %27, align 8
  %29 = load ptr, ptr %4, align 8
  %30 = getelementptr inbounds %"class.Gluco::RegionAllocator", ptr %29, i32 0, i32 3
  store i32 %28, ptr %30, align 8
  %31 = getelementptr inbounds %"class.Gluco::RegionAllocator", ptr %5, i32 0, i32 0
  store ptr null, ptr %31, align 8
  %32 = getelementptr inbounds %"class.Gluco::RegionAllocator", ptr %5, i32 0, i32 3
  store i32 0, ptr %32, align 8
  %33 = getelementptr inbounds %"class.Gluco::RegionAllocator", ptr %5, i32 0, i32 2
  store i32 0, ptr %33, align 4
  %34 = getelementptr inbounds %"class.Gluco::RegionAllocator", ptr %5, i32 0, i32 1
  store i32 0, ptr %34, align 8
  ret void
}

; Function Attrs: mustprogress nounwind uwtable
define linkonce_odr void @_ZN5Gluco15RegionAllocatorIjED2Ev(ptr noundef nonnull align 8 dereferenceable(20) %0) unnamed_addr #2 comdat align 2 {
  %2 = alloca ptr, align 8
  store ptr %0, ptr %2, align 8
  %3 = load ptr, ptr %2, align 8
  %4 = getelementptr inbounds %"class.Gluco::RegionAllocator", ptr %3, i32 0, i32 0
  %5 = load ptr, ptr %4, align 8
  %6 = icmp ne ptr %5, null
  br i1 %6, label %7, label %10

7:                                                ; preds = %1
  %8 = getelementptr inbounds %"class.Gluco::RegionAllocator", ptr %3, i32 0, i32 0
  %9 = load ptr, ptr %8, align 8
  call void @free(ptr noundef %9) #3
  br label %10

10:                                               ; preds = %7, %1
  ret void
}

; Function Attrs: mustprogress uwtable
define linkonce_odr void @_ZN5Gluco15RegionAllocatorIjEC2Ej(ptr noundef nonnull align 8 dereferenceable(20) %0, i32 noundef %1) unnamed_addr #1 comdat align 2 {
  %3 = alloca ptr, align 8
  %4 = alloca i32, align 4
  store ptr %0, ptr %3, align 8
  store i32 %1, ptr %4, align 4
  %5 = load ptr, ptr %3, align 8
  %6 = getelementptr inbounds %"class.Gluco::RegionAllocator", ptr %5, i32 0, i32 0
  store ptr null, ptr %6, align 8
  %7 = getelementptr inbounds %"class.Gluco::RegionAllocator", ptr %5, i32 0, i32 1
  store i32 0, ptr %7, align 8
  %8 = getelementptr inbounds %"class.Gluco::RegionAllocator", ptr %5, i32 0, i32 2
  store i32 0, ptr %8, align 4
  %9 = getelementptr inbounds %"class.Gluco::RegionAllocator", ptr %5, i32 0, i32 3
  store i32 0, ptr %9, align 8
  %10 = load i32, ptr %4, align 4
  call void @_ZN5Gluco15RegionAllocatorIjE8capacityEj(ptr noundef nonnull align 8 dereferenceable(20) %5, i32 noundef %10)
  ret void
}

; Function Attrs: mustprogress uwtable
define linkonce_odr void @_ZN5Gluco15ClauseAllocator6moveToERS0_(ptr noundef nonnull align 8 dereferenceable(21) %0, ptr noundef nonnull align 8 dereferenceable(21) %1) #1 comdat align 2 {
  %3 = alloca ptr, align 8
  %4 = alloca ptr, align 8
  store ptr %0, ptr %3, align 8
  store ptr %1, ptr %4, align 8
  %5 = load ptr, ptr %3, align 8
  %6 = getelementptr inbounds %"class.Gluco::ClauseAllocator", ptr %5, i32 0, i32 1
  %7 = load i8, ptr %6, align 4
  %8 = trunc i8 %7 to i1
  %9 = load ptr, ptr %4, align 8
  %10 = getelementptr inbounds %"class.Gluco::ClauseAllocator", ptr %9, i32 0, i32 1
  %11 = zext i1 %8 to i8
  store i8 %11, ptr %10, align 4
  %12 = load ptr, ptr %4, align 8
  call void @_ZN5Gluco15RegionAllocatorIjE6moveToERS1_(ptr noundef nonnull align 8 dereferenceable(20) %5, ptr noundef nonnull align 8 dereferenceable(20) %12)
  ret void
}

; Function Attrs: mustprogress nounwind uwtable
define linkonce_odr void @_ZN5Gluco15ClauseAllocatorD2Ev(ptr noundef nonnull align 8 dereferenceable(21) %0) unnamed_addr #2 comdat align 2 {
  %2 = alloca ptr, align 8
  store ptr %0, ptr %2, align 8
  %3 = load ptr, ptr %2, align 8
  call void @_ZN5Gluco15RegionAllocatorIjED2Ev(ptr noundef nonnull align 8 dereferenceable(20) %3) #3
  ret void
}

; Function Attrs: mustprogress uwtable
define linkonce_odr void @_ZN5Gluco15ClauseAllocatorC2Ej(ptr noundef nonnull align 8 dereferenceable(21) %0, i32 noundef %1) unnamed_addr #1 comdat align 2 {
  %3 = alloca ptr, align 8
  %4 = alloca i32, align 4
  store ptr %0, ptr %3, align 8
  store i32 %1, ptr %4, align 4
  %5 = load ptr, ptr %3, align 8
  %6 = load i32, ptr %4, align 4
  call void @_ZN5Gluco15RegionAllocatorIjEC2Ej(ptr noundef nonnull align 8 dereferenceable(20) %5, i32 noundef %6)
  %7 = getelementptr inbounds %"class.Gluco::ClauseAllocator", ptr %5, i32 0, i32 1
  store i8 0, ptr %7, align 4
  ret void
}

; Function Attrs: mustprogress nounwind uwtable
define linkonce_odr noundef i32 @_ZNK5Gluco15RegionAllocatorIjE6wastedEv(ptr noundef nonnull align 8 dereferenceable(20) %0) #2 comdat align 2 {
  %2 = alloca ptr, align 8
  store ptr %0, ptr %2, align 8
  %3 = load ptr, ptr %2, align 8
  %4 = getelementptr inbounds %"class.Gluco::RegionAllocator", ptr %3, i32 0, i32 3
  %5 = load i32, ptr %4, align 8
  ret i32 %5
}

; Function Attrs: mustprogress nounwind uwtable
define linkonce_odr noundef i32 @_ZNK5Gluco15RegionAllocatorIjE4sizeEv(ptr noundef nonnull align 8 dereferenceable(20) %0) #2 comdat align 2 {
  %2 = alloca ptr, align 8
  store ptr %0, ptr %2, align 8
  %3 = load ptr, ptr %2, align 8
  %4 = getelementptr inbounds %"class.Gluco::RegionAllocator", ptr %3, i32 0, i32 1
  %5 = load i32, ptr %4, align 8
  ret i32 %5
}

; Function Attrs: mustprogress uwtable
define void @_ZN5Gluco10SimpSolver14garbageCollectEv(ptr noundef nonnull align 8 dereferenceable(1484) %0) unnamed_addr #1 align 2 personality ptr @__gxx_personality_v0 {
  %2 = alloca ptr, align 8
  %3 = alloca %"class.Gluco::ClauseAllocator", align 8
  %4 = alloca ptr, align 8
  %5 = alloca i32, align 4
  store ptr %0, ptr %2, align 8
  %6 = load ptr, ptr %2, align 8
  %7 = getelementptr inbounds %"class.Gluco::Solver", ptr %6, i32 0, i32 84
  %8 = call noundef i32 @_ZNK5Gluco15RegionAllocatorIjE4sizeEv(ptr noundef nonnull align 8 dereferenceable(20) %7)
  %9 = getelementptr inbounds %"class.Gluco::Solver", ptr %6, i32 0, i32 84
  %10 = call noundef i32 @_ZNK5Gluco15RegionAllocatorIjE6wastedEv(ptr noundef nonnull align 8 dereferenceable(20) %9)
  %11 = sub i32 %8, %10
  call void @_ZN5Gluco15ClauseAllocatorC2Ej(ptr noundef nonnull align 8 dereferenceable(21) %3, i32 noundef %11)
  invoke void @_ZN5Gluco10SimpSolver14cleanUpClausesEv(ptr noundef nonnull align 8 dereferenceable(1484) %6)
          to label %12 unwind label %34

12:                                               ; preds = %1
  %13 = getelementptr inbounds %"class.Gluco::Solver", ptr %6, i32 0, i32 84
  %14 = getelementptr inbounds %"class.Gluco::ClauseAllocator", ptr %13, i32 0, i32 1
  %15 = load i8, ptr %14, align 4
  %16 = trunc i8 %15 to i1
  %17 = getelementptr inbounds %"class.Gluco::ClauseAllocator", ptr %3, i32 0, i32 1
  %18 = zext i1 %16 to i8
  store i8 %18, ptr %17, align 4
  invoke void @_ZN5Gluco10SimpSolver8relocAllERNS_15ClauseAllocatorE(ptr noundef nonnull align 8 dereferenceable(1484) %6, ptr noundef nonnull align 8 dereferenceable(21) %3)
          to label %19 unwind label %34

19:                                               ; preds = %12
  invoke void @_ZN5Gluco6Solver8relocAllERNS_15ClauseAllocatorE(ptr noundef nonnull align 8 dereferenceable(1216) %6, ptr noundef nonnull align 8 dereferenceable(21) %3)
          to label %20 unwind label %34

20:                                               ; preds = %19
  %21 = getelementptr inbounds %"class.Gluco::Solver", ptr %6, i32 0, i32 13
  %22 = load i32, ptr %21, align 8
  %23 = icmp sge i32 %22, 2
  br i1 %23, label %24, label %38

24:                                               ; preds = %20
  %25 = getelementptr inbounds %"class.Gluco::Solver", ptr %6, i32 0, i32 84
  %26 = invoke noundef i32 @_ZNK5Gluco15RegionAllocatorIjE4sizeEv(ptr noundef nonnull align 8 dereferenceable(20) %25)
          to label %27 unwind label %34

27:                                               ; preds = %24
  %28 = mul i32 %26, 4
  %29 = invoke noundef i32 @_ZNK5Gluco15RegionAllocatorIjE4sizeEv(ptr noundef nonnull align 8 dereferenceable(20) %3)
          to label %30 unwind label %34

30:                                               ; preds = %27
  %31 = mul i32 %29, 4
  %32 = invoke i32 (ptr, ...) @printf(ptr noundef @.str.28, i32 noundef %28, i32 noundef %31)
          to label %33 unwind label %34

33:                                               ; preds = %30
  br label %38

34:                                               ; preds = %38, %30, %27, %24, %19, %12, %1
  %35 = landingpad { ptr, i32 }
          cleanup
  %36 = extractvalue { ptr, i32 } %35, 0
  store ptr %36, ptr %4, align 8
  %37 = extractvalue { ptr, i32 } %35, 1
  store i32 %37, ptr %5, align 4
  call void @_ZN5Gluco15ClauseAllocatorD2Ev(ptr noundef nonnull align 8 dereferenceable(21) %3) #3
  br label %41

38:                                               ; preds = %33, %20
  %39 = getelementptr inbounds %"class.Gluco::Solver", ptr %6, i32 0, i32 84
  invoke void @_ZN5Gluco15ClauseAllocator6moveToERS0_(ptr noundef nonnull align 8 dereferenceable(21) %3, ptr noundef nonnull align 8 dereferenceable(21) %39)
          to label %40 unwind label %34

40:                                               ; preds = %38
  call void @_ZN5Gluco15ClauseAllocatorD2Ev(ptr noundef nonnull align 8 dereferenceable(21) %3) #3
  ret void

41:                                               ; preds = %34
  %42 = load ptr, ptr %4, align 8
  %43 = load i32, ptr %5, align 4
  %44 = insertvalue { ptr, i32 } poison, ptr %42, 0
  %45 = insertvalue { ptr, i32 } %44, i32 %43, 1
  resume { ptr, i32 } %45
}